target datalayout = "e-m:e-p270:32:32-p271:32:32-p272:64:64-i64:64-i128:128-f80:128-n8:16:32:64-S128"
target triple = "x86_64-pc-linux-gnu"

%struct.gmx_ana_selparam_t = type { ptr, %struct.gmx_ana_selvalue_t, ptr, i32 }
%struct.gmx_ana_selvalue_t = type { i32, i32, %union.anon, i32 }
%union.anon = type { ptr }

; Function Attrs: mustprogress nounwind uwtable
define noundef ptr @_Z21gmx_ana_selparam_findPKciP18gmx_ana_selparam_t(ptr noundef %0, i32 noundef %1, ptr noundef %2) #0 {
  %4 = alloca ptr, align 8
  %5 = alloca ptr, align 8
  %6 = alloca i32, align 4
  %7 = alloca ptr, align 8
  %8 = alloca i32, align 4
  %9 = alloca i32, align 4
  store ptr %0, ptr %5, align 8, !tbaa !4
  store i32 %1, ptr %6, align 4, !tbaa !9
  store ptr %2, ptr %7, align 8, !tbaa !11
  call void @llvm.lifetime.start.p0(i64 4, ptr %8) #24
  %10 = load i32, ptr %6, align 4, !tbaa !9
  %11 = icmp eq i32 %10, 0
  br i1 %11, label %12, label %13

12:                                               ; preds = %3
  store ptr null, ptr %4, align 8
  store i32 1, ptr %9, align 4
  br label %112

13:                                               ; preds = %3
  store i32 0, ptr %8, align 4, !tbaa !9
  br label %14

14:                                               ; preds = %28, %13
  %15 = load i32, ptr %8, align 4, !tbaa !9
  %16 = load i32, ptr %6, align 4, !tbaa !9
  %17 = icmp slt i32 %15, %16
  br i1 %17, label %18, label %26

18:                                               ; preds = %14
  %19 = load ptr, ptr %7, align 8, !tbaa !11
  %20 = load i32, ptr %8, align 4, !tbaa !9
  %21 = sext i32 %20 to i64
  %22 = getelementptr inbounds %struct.gmx_ana_selparam_t, ptr %19, i64 %21
  %23 = getelementptr inbounds nuw %struct.gmx_ana_selparam_t, ptr %22, i32 0, i32 0
  %24 = load ptr, ptr %23, align 8, !tbaa !13
  %25 = icmp eq ptr %24, null
  br label %26

26:                                               ; preds = %18, %14
  %27 = phi i1 [ false, %14 ], [ %25, %18 ]
  br i1 %27, label %28, label %31

28:                                               ; preds = %26
  %29 = load i32, ptr %8, align 4, !tbaa !9
  %30 = add nsw i32 %29, 1
  store i32 %30, ptr %8, align 4, !tbaa !9
  br label %14, !llvm.loop !18

31:                                               ; preds = %26
  %32 = load ptr, ptr %5, align 8, !tbaa !4
  %33 = icmp eq ptr %32, null
  br i1 %33, label %34, label %46

34:                                               ; preds = %31
  %35 = load i32, ptr %8, align 4, !tbaa !9
  %36 = icmp eq i32 %35, 0
  br i1 %36, label %37, label %38

37:                                               ; preds = %34
  br label %44

38:                                               ; preds = %34
  %39 = load ptr, ptr %7, align 8, !tbaa !11
  %40 = load i32, ptr %8, align 4, !tbaa !9
  %41 = sub nsw i32 %40, 1
  %42 = sext i32 %41 to i64
  %43 = getelementptr inbounds %struct.gmx_ana_selparam_t, ptr %39, i64 %42
  br label %44

44:                                               ; preds = %38, %37
  %45 = phi ptr [ null, %37 ], [ %43, %38 ]
  store ptr %45, ptr %4, align 8
  store i32 1, ptr %9, align 4
  br label %112

46:                                               ; preds = %31
  br label %47

47:                                               ; preds = %108, %46
  %48 = load i32, ptr %8, align 4, !tbaa !9
  %49 = load i32, ptr %6, align 4, !tbaa !9
  %50 = icmp slt i32 %48, %49
  br i1 %50, label %51, label %111

51:                                               ; preds = %47
  %52 = load ptr, ptr %7, align 8, !tbaa !11
  %53 = load i32, ptr %8, align 4, !tbaa !9
  %54 = sext i32 %53 to i64
  %55 = getelementptr inbounds %struct.gmx_ana_selparam_t, ptr %52, i64 %54
  %56 = getelementptr inbounds nuw %struct.gmx_ana_selparam_t, ptr %55, i32 0, i32 0
  %57 = load ptr, ptr %56, align 8, !tbaa !13
  %58 = load ptr, ptr %5, align 8, !tbaa !4
  %59 = call i32 @strcmp(ptr noundef %57, ptr noundef %58) #25
  %60 = icmp ne i32 %59, 0
  br i1 %60, label %66, label %61

61:                                               ; preds = %51
  %62 = load ptr, ptr %7, align 8, !tbaa !11
  %63 = load i32, ptr %8, align 4, !tbaa !9
  %64 = sext i32 %63 to i64
  %65 = getelementptr inbounds %struct.gmx_ana_selparam_t, ptr %62, i64 %64
  store ptr %65, ptr %4, align 8
  store i32 1, ptr %9, align 4
  br label %112

66:                                               ; preds = %51
  %67 = load ptr, ptr %7, align 8, !tbaa !11
  %68 = load i32, ptr %8, align 4, !tbaa !9
  %69 = sext i32 %68 to i64
  %70 = getelementptr inbounds %struct.gmx_ana_selparam_t, ptr %67, i64 %69
  %71 = getelementptr inbounds nuw %struct.gmx_ana_selparam_t, ptr %70, i32 0, i32 1
  %72 = getelementptr inbounds nuw %struct.gmx_ana_selvalue_t, ptr %71, i32 0, i32 0
  %73 = load i32, ptr %72, align 8, !tbaa !20
  %74 = icmp eq i32 %73, 0
  br i1 %74, label %75, label %107

75:                                               ; preds = %66
  %76 = load ptr, ptr %5, align 8, !tbaa !4
  %77 = call i64 @strlen(ptr noundef %76) #25
  %78 = icmp ugt i64 %77, 2
  br i1 %78, label %79, label %107

79:                                               ; preds = %75
  %80 = load ptr, ptr %5, align 8, !tbaa !4
  %81 = getelementptr inbounds i8, ptr %80, i64 0
  %82 = load i8, ptr %81, align 1, !tbaa !21
  %83 = sext i8 %82 to i32
  %84 = icmp eq i32 %83, 110
  br i1 %84, label %85, label %107

85:                                               ; preds = %79
  %86 = load ptr, ptr %5, align 8, !tbaa !4
  %87 = getelementptr inbounds i8, ptr %86, i64 1
  %88 = load i8, ptr %87, align 1, !tbaa !21
  %89 = sext i8 %88 to i32
  %90 = icmp eq i32 %89, 111
  br i1 %90, label %91, label %107

91:                                               ; preds = %85
  %92 = load ptr, ptr %7, align 8, !tbaa !11
  %93 = load i32, ptr %8, align 4, !tbaa !9
  %94 = sext i32 %93 to i64
  %95 = getelementptr inbounds %struct.gmx_ana_selparam_t, ptr %92, i64 %94
  %96 = getelementptr inbounds nuw %struct.gmx_ana_selparam_t, ptr %95, i32 0, i32 0
  %97 = load ptr, ptr %96, align 8, !tbaa !13
  %98 = load ptr, ptr %5, align 8, !tbaa !4
  %99 = getelementptr inbounds i8, ptr %98, i64 2
  %100 = call i32 @strcmp(ptr noundef %97, ptr noundef %99) #25
  %101 = icmp ne i32 %100, 0
  br i1 %101, label %107, label %102

102:                                              ; preds = %91
  %103 = load ptr, ptr %7, align 8, !tbaa !11
  %104 = load i32, ptr %8, align 4, !tbaa !9
  %105 = sext i32 %104 to i64
  %106 = getelementptr inbounds %struct.gmx_ana_selparam_t, ptr %103, i64 %105
  store ptr %106, ptr %4, align 8
  store i32 1, ptr %9, align 4
  br label %112

107:                                              ; preds = %91, %85, %79, %75, %66
  br label %108

108:                                              ; preds = %107
  %109 = load i32, ptr %8, align 4, !tbaa !9
  %110 = add nsw i32 %109, 1
  store i32 %110, ptr %8, align 4, !tbaa !9
  br label %47, !llvm.loop !22

111:                                              ; preds = %47
  store ptr null, ptr %4, align 8
  store i32 1, ptr %9, align 4
  br label %112

112:                                              ; preds = %111, %102, %61, %44, %12
  call void @llvm.lifetime.end.p0(i64 4, ptr %8) #24
  %113 = load ptr, ptr %4, align 8
  ret ptr %113
}