; Function Attrs: mustprogress nofree nounwind willreturn memory(read, inaccessiblemem: none) uwtable
define noundef ptr @_Z21gmx_ana_selparam_findPKciP18gmx_ana_selparam_t(ptr noundef readonly %0, i32 noundef %1, ptr noundef readonly %2) local_unnamed_addr #0 {
  %4 = icmp eq i32 %1, 0
  br i1 %4, label %.loopexit, label %.preheader31

.preheader31:                                     ; preds = %3
  %5 = icmp sgt i32 %1, 0
  br i1 %5, label %.lr.ph.preheader, label %.critedge

.lr.ph.preheader:                                 ; preds = %.preheader31
  %wide.trip.count = zext nneg i32 %1 to i64
  br label %.lr.ph

.lr.ph:                                           ; preds = %.lr.ph.preheader, %9
  %indvars.iv = phi i64 [ 0, %.lr.ph.preheader ], [ %indvars.iv.next, %9 ]
  %6 = getelementptr inbounds nuw %struct.gmx_ana_selparam_t, ptr %2, i64 %indvars.iv
  %7 = load ptr, ptr %6, align 8, !tbaa !4
  %8 = icmp eq ptr %7, null
  br i1 %8, label %9, label %.critedge.loopexit.split.loop.exit46

9:                                                ; preds = %.lr.ph
  %indvars.iv.next = add nuw nsw i64 %indvars.iv, 1
  %exitcond.not = icmp eq i64 %indvars.iv.next, %wide.trip.count
  br i1 %exitcond.not, label %.critedge, label %.lr.ph, !llvm.loop !14

.critedge.loopexit.split.loop.exit46:             ; preds = %.lr.ph
  %10 = trunc nuw nsw i64 %indvars.iv to i32
  br label %.critedge

.critedge:                                        ; preds = %9, %.critedge.loopexit.split.loop.exit46, %.preheader31
  %.0.lcssa = phi i32 [ 0, %.preheader31 ], [ %10, %.critedge.loopexit.split.loop.exit46 ], [ %1, %9 ]
  %11 = icmp eq ptr %0, null
  br i1 %11, label %16, label %.preheader

.preheader:                                       ; preds = %.critedge
  %12 = getelementptr inbounds nuw i8, ptr %0, i64 2
  %13 = icmp slt i32 %.0.lcssa, %1
  br i1 %13, label %.lr.ph36, label %.loopexit

.lr.ph36:                                         ; preds = %.preheader
  %14 = getelementptr inbounds nuw i8, ptr %0, i64 1
  %15 = zext i32 %.0.lcssa to i64
  br label %22

16:                                               ; preds = %.critedge
  %17 = icmp eq i32 %.0.lcssa, 0
  %18 = zext nneg i32 %.0.lcssa to i64
  %19 = getelementptr %struct.gmx_ana_selparam_t, ptr %2, i64 %18
  %20 = getelementptr i8, ptr %19, i64 -48
  %21 = select i1 %17, ptr null, ptr %20
  br label %.loopexit

22:                                               ; preds = %.lr.ph36, %41
  %indvars.iv43 = phi i64 [ %15, %.lr.ph36 ], [ %indvars.iv.next44, %41 ]
  %23 = getelementptr inbounds nuw %struct.gmx_ana_selparam_t, ptr %2, i64 %indvars.iv43
  %24 = load ptr, ptr %23, align 8, !tbaa !4
  %25 = tail call i32 @strcmp(ptr noundef nonnull dereferenceable(1) %24, ptr noundef nonnull dereferenceable(1) %0) #25
  %.not = icmp eq i32 %25, 0
  br i1 %.not, label %.loopexit, label %26

26:                                               ; preds = %22
  %27 = getelementptr inbounds nuw i8, ptr %23, i64 8
  %28 = load i32, ptr %27, align 8, !tbaa !16
  %29 = icmp eq i32 %28, 0
  br i1 %29, label %30, label %41

30:                                               ; preds = %26
  %31 = tail call i64 @strlen(ptr noundef nonnull dereferenceable(1) %0) #25
  %32 = icmp ugt i64 %31, 2
  br i1 %32, label %33, label %41

33:                                               ; preds = %30
  %34 = load i8, ptr %0, align 1, !tbaa !17
  %35 = icmp eq i8 %34, 110
  br i1 %35, label %36, label %41

36:                                               ; preds = %33
  %37 = load i8, ptr %14, align 1, !tbaa !17
  %38 = icmp eq i8 %37, 111
  br i1 %38, label %39, label %41

39:                                               ; preds = %36
  %40 = tail call i32 @strcmp(ptr noundef nonnull dereferenceable(1) %24, ptr noundef nonnull dereferenceable(1) %12) #25
  %.not30 = icmp eq i32 %40, 0
  br i1 %.not30, label %.loopexit, label %41

41:                                               ; preds = %26, %30, %33, %36, %39
  %indvars.iv.next44 = add nuw nsw i64 %indvars.iv43, 1
  %42 = trunc nuw i64 %indvars.iv.next44 to i32
  %43 = icmp sgt i32 %1, %42
  br i1 %43, label %22, label %.loopexit, !llvm.loop !18

.loopexit:                                        ; preds = %22, %39, %41, %.preheader, %3, %16
  %.028 = phi ptr [ %21, %16 ], [ null, %3 ], [ null, %.preheader ], [ %23, %22 ], [ %23, %39 ], [ null, %41 ]
  ret ptr %.028
}